; ModuleID = '40/3088.c'
source_filename = "40/3088.c"
target datalayout = "e-m:e-p270:32:32-p271:32:32-p272:64:64-i64:64-f80:128-n8:16:32:64-S128"
target triple = "x86_64-pc-linux-gnu"

@.str = private unnamed_addr constant [15 x i8] c"%f\0A%f\0A%f\0A%f\0A%f\00", align 1
@.str.1 = private unnamed_addr constant [5 x i8] c"%.4f\00", align 1
@.str.2 = private unnamed_addr constant [14 x i8] c"Invalid input\00", align 1

; Function Attrs: noinline nounwind uwtable
define dso_local i32 @main() #0 {
  %1 = alloca i32, align 4
  %2 = alloca float, align 4
  %3 = alloca float, align 4
  %4 = alloca float, align 4
  %5 = alloca float, align 4
  %6 = alloca float, align 4
  %7 = alloca float, align 4
  %8 = alloca float, align 4
  %9 = alloca float, align 4
  %10 = alloca float, align 4
  %11 = alloca float, align 4
  %12 = alloca float, align 4
  store i32 0, i32* %1, align 4
  store float 0x400921FB40000000, float* %11, align 4
  %13 = call i32 (i8*, ...) @__isoc99_scanf(i8* getelementptr inbounds ([15 x i8], [15 x i8]* @.str, i64 0, i64 0), float* %2, float* %3, float* %4, float* %5, float* %6)
  %14 = load float, float* %2, align 4
  %15 = load float, float* %3, align 4
  %16 = fadd float %14, %15
  %17 = load float, float* %4, align 4
  %18 = fadd float %16, %17
  %19 = load float, float* %5, align 4
  %20 = fadd float %18, %19
  %21 = fdiv float %20, 2.000000e+00
  store float %21, float* %12, align 4
  %22 = load float, float* %12, align 4
  %23 = load float, float* %2, align 4
  %24 = fsub float %22, %23
  %25 = load float, float* %12, align 4
  %26 = load float, float* %3, align 4
  %27 = fsub float %25, %26
  %28 = fmul float %24, %27
  %29 = load float, float* %12, align 4
  %30 = load float, float* %4, align 4
  %31 = fsub float %29, %30
  %32 = fmul float %28, %31
  %33 = load float, float* %12, align 4
  %34 = load float, float* %5, align 4
  %35 = fsub float %33, %34
  %36 = fmul float %32, %35
  store float %36, float* %8, align 4
  %37 = load float, float* %6, align 4
  %38 = fdiv float %37, 3.600000e+02
  %39 = load float, float* %11, align 4
  %40 = fmul float %38, %39
  store float %40, float* %7, align 4
  %41 = load float, float* %2, align 4
  %42 = load float, float* %3, align 4
  %43 = fmul float %41, %42
  %44 = load float, float* %4, align 4
  %45 = fmul float %43, %44
  %46 = load float, float* %5, align 4
  %47 = fmul float %45, %46
  %48 = fpext float %47 to double
  %49 = load float, float* %7, align 4
  %50 = fpext float %49 to double
  %51 = call double @cos(double %50) #3
  %52 = load float, float* %7, align 4
  %53 = fpext float %52 to double
  %54 = call double @cos(double %53) #3
  %55 = fmul double %51, %54
  %56 = fmul double %48, %55
  %57 = fptrunc double %56 to float
  store float %57, float* %9, align 4
  %58 = load float, float* %8, align 4
  %59 = load float, float* %9, align 4
  %60 = fsub float %58, %59
  %61 = fcmp ogt float %60, 0.000000e+00
  br i1 %61, label %62, label %72

62:                                               ; preds = %0
  %63 = load float, float* %8, align 4
  %64 = load float, float* %9, align 4
  %65 = fsub float %63, %64
  %66 = fpext float %65 to double
  %67 = call double @sqrt(double %66) #3
  %68 = fptrunc double %67 to float
  store float %68, float* %10, align 4
  %69 = load float, float* %10, align 4
  %70 = fpext float %69 to double
  %71 = call i32 (i8*, ...) @printf(i8* getelementptr inbounds ([5 x i8], [5 x i8]* @.str.1, i64 0, i64 0), double %70)
  br label %74

72:                                               ; preds = %0
  %73 = call i32 (i8*, ...) @printf(i8* getelementptr inbounds ([14 x i8], [14 x i8]* @.str.2, i64 0, i64 0))
  br label %74

74:                                               ; preds = %72, %62
  ret i32 0
}

declare dso_local i32 @__isoc99_scanf(i8*, ...) #1

; Function Attrs: nounwind
declare dso_local double @cos(double) #2

; Function Attrs: nounwind
declare dso_local double @sqrt(double) #2

declare dso_local i32 @printf(i8*, ...) #1


!llvm.module.flags = !{!0}
!llvm.ident = !{!1}

!0 = !{i32 1, !"wchar_size", i32 4}
!1 = !{!"clang version 10.0.0-4ubuntu1 "}
